target datalayout = "e-m:e-p270:32:32-p271:32:32-p272:64:64-i64:64-i128:128-f80:128-n8:16:32:64-S128"
target triple = "x86_64-pc-linux-gnu"

%"struct.cv::Ptr" = type { %"class.std::shared_ptr" }
%"class.std::shared_ptr" = type { %"class.std::__shared_ptr" }
%"class.std::__shared_ptr" = type { ptr, %"class.std::__shared_count" }
%"class.std::__shared_count" = type { ptr }
%"class.cv::line_descriptor::BinaryDescriptorMatcher" = type <{ %"class.cv::Algorithm", %"class.cv::Mat", %"class.std::map", %"struct.cv::Ptr", i32, i32, i32, [4 x i8] }>
%"class.cv::Algorithm" = type { ptr }
%"class.cv::Mat" = type { i32, i32, i32, i32, ptr, ptr, ptr, ptr, ptr, ptr, %"struct.cv::MatSize", %"struct.cv::MatStep" }
%"struct.cv::MatSize" = type { ptr }
%"struct.cv::MatStep" = type { ptr, [2 x i64] }
%"class.std::map" = type { %"class.std::_Rb_tree" }
%"class.std::_Rb_tree" = type { %"struct.std::_Rb_tree<int, std::pair<const int, int>, std::_Select1st<std::pair<const int, int>>, std::less<int>>::_Rb_tree_impl" }
%"struct.std::_Rb_tree<int, std::pair<const int, int>, std::_Select1st<std::pair<const int, int>>, std::less<int>>::_Rb_tree_impl" = type { [8 x i8], %"struct.std::_Rb_tree_header" }
%"struct.std::_Rb_tree_header" = type { %"struct.std::_Rb_tree_node_base", i64 }
%"struct.std::_Rb_tree_node_base" = type { i32, ptr, ptr, ptr }
%"struct.std::pair.21" = type { i32, i32 }
%"struct.std::pair" = type <{ %"struct.std::_Rb_tree_iterator", i8, [7 x i8] }>
%"struct.std::_Rb_tree_iterator" = type { ptr }
%"struct.std::_Vector_base.17" = type { %"struct.std::_Vector_base<cv::Mat, std::allocator<cv::Mat>>::_Vector_impl" }
%"struct.std::_Vector_base<cv::Mat, std::allocator<cv::Mat>>::_Vector_impl" = type { %"struct.std::_Vector_base<cv::Mat, std::allocator<cv::Mat>>::_Vector_impl_data" }
%"struct.std::_Vector_base<cv::Mat, std::allocator<cv::Mat>>::_Vector_impl_data" = type { ptr, ptr, ptr }

; Function Attrs: mustprogress uwtable
define linkonce_odr hidden { ptr, i8 } @_ZNSt3mapIiiSt4lessIiESaISt4pairIKiiEEE6insertIS2_IiiEEENSt9enable_ifIXsr16is_constructibleIS4_T_EE5valueES2_ISt17_Rb_tree_iteratorIS4_EbEE4typeEOSA_(ptr noundef nonnull align 8 dereferenceable(48) %0, ptr noundef nonnull align 4 dereferenceable(8) %1) #4 comdat align 2 {
  %3 = alloca %"struct.std::pair", align 8
  %4 = alloca ptr, align 8
  %5 = alloca ptr, align 8
  %6 = alloca { ptr, i8 }, align 8
  store ptr %0, ptr %4, align 8, !tbaa !40
  store ptr %1, ptr %5, align 8, !tbaa !57
  %7 = load ptr, ptr %4, align 8
  %8 = getelementptr inbounds nuw %"class.std::map", ptr %7, i32 0, i32 0
  %9 = load ptr, ptr %5, align 8, !tbaa !57
  %10 = call { ptr, i8 } @_ZNSt8_Rb_treeIiSt4pairIKiiESt10_Select1stIS2_ESt4lessIiESaIS2_EE17_M_emplace_uniqueIJS0_IiiEEEES0_ISt17_Rb_tree_iteratorIS2_EbEDpOT_(ptr noundef nonnull align 8 dereferenceable(48) %8, ptr noundef nonnull align 4 dereferenceable(8) %9)
  store { ptr, i8 } %10, ptr %6, align 8
  call void @llvm.memcpy.p0.p0.i64(ptr align 8 %3, ptr align 8 %6, i64 9, i1 false)
  %11 = load { ptr, i8 }, ptr %3, align 8
  ret { ptr, i8 } %11
}

; Function Attrs: mustprogress nounwind uwtable
define linkonce_odr hidden void @_ZNSt4pairIiiEC2IRiS2_TnNSt9enable_ifIXaaclsr5_PCCPE22_MoveConstructiblePairIT_T0_EEclsr5_PCCPE30_ImplicitlyMoveConvertiblePairIS4_S5_EEEbE4typeELb1EEEOS4_OS5_(ptr noundef nonnull align 4 dereferenceable(8) %0, ptr noundef nonnull align 4 dereferenceable(4) %1, ptr noundef nonnull align 4 dereferenceable(4) %2) unnamed_addr #5 comdat align 2 {
  %4 = alloca ptr, align 8
  %5 = alloca ptr, align 8
  %6 = alloca ptr, align 8
  store ptr %0, ptr %4, align 8, !tbaa !57
  store ptr %1, ptr %5, align 8, !tbaa !59
  store ptr %2, ptr %6, align 8, !tbaa !59
  %7 = load ptr, ptr %4, align 8
  %8 = getelementptr inbounds nuw %"struct.std::pair.21", ptr %7, i32 0, i32 0
  %9 = load ptr, ptr %5, align 8, !tbaa !59
  %10 = load i32, ptr %9, align 4, !tbaa !60
  store i32 %10, ptr %8, align 4, !tbaa !61
  %11 = getelementptr inbounds nuw %"struct.std::pair.21", ptr %7, i32 0, i32 1
  %12 = load ptr, ptr %6, align 8, !tbaa !59
  %13 = load i32, ptr %12, align 4, !tbaa !60
  store i32 %13, ptr %11, align 4, !tbaa !63
  ret void
}

; Function Attrs: mustprogress nounwind uwtable
define linkonce_odr hidden noundef nonnull align 8 dereferenceable(96) ptr @_ZNKSt6vectorIN2cv3MatESaIS1_EEixEm(ptr noundef nonnull align 8 dereferenceable(24) %0, i64 noundef %1) #5 comdat align 2 {
  %3 = alloca ptr, align 8
  %4 = alloca i64, align 8
  store ptr %0, ptr %3, align 8, !tbaa !47
  store i64 %1, ptr %4, align 8, !tbaa !49
  %5 = load ptr, ptr %3, align 8
  %6 = getelementptr inbounds nuw %"struct.std::_Vector_base.17", ptr %5, i32 0, i32 0
  %7 = getelementptr inbounds nuw %"struct.std::_Vector_base<cv::Mat, std::allocator<cv::Mat>>::_Vector_impl_data", ptr %6, i32 0, i32 0
  %8 = load ptr, ptr %7, align 8, !tbaa !56
  %9 = load i64, ptr %4, align 8, !tbaa !49
  %10 = getelementptr inbounds nuw %"class.cv::Mat", ptr %8, i64 %9
  ret ptr %10
}

; Function Attrs: mustprogress nounwind uwtable
define linkonce_odr hidden noundef i64 @_ZNKSt6vectorIN2cv3MatESaIS1_EE4sizeEv(ptr noundef nonnull align 8 dereferenceable(24) %0) #5 comdat align 2 {
  %2 = alloca ptr, align 8
  store ptr %0, ptr %2, align 8, !tbaa !47
  %3 = load ptr, ptr %2, align 8
  %4 = getelementptr inbounds nuw %"struct.std::_Vector_base.17", ptr %3, i32 0, i32 0
  %5 = getelementptr inbounds nuw %"struct.std::_Vector_base<cv::Mat, std::allocator<cv::Mat>>::_Vector_impl_data", ptr %4, i32 0, i32 1
  %6 = load ptr, ptr %5, align 8, !tbaa !53
  %7 = getelementptr inbounds nuw %"struct.std::_Vector_base.17", ptr %3, i32 0, i32 0
  %8 = getelementptr inbounds nuw %"struct.std::_Vector_base<cv::Mat, std::allocator<cv::Mat>>::_Vector_impl_data", ptr %7, i32 0, i32 0
  %9 = load ptr, ptr %8, align 8, !tbaa !56
  %10 = ptrtoint ptr %6 to i64
  %11 = ptrtoint ptr %9 to i64
  %12 = sub i64 %10, %11
  %13 = sdiv exact i64 %12, 96
  ret i64 %13
}

; Function Attrs: mustprogress uwtable
define void @_ZN2cv15line_descriptor23BinaryDescriptorMatcher3addERKSt6vectorINS_3MatESaIS3_EE(ptr noundef nonnull align 8 dereferenceable(180) %0, ptr noundef nonnull align 8 dereferenceable(24) %1) #4 align 2 {
  %3 = alloca ptr, align 8
  %4 = alloca ptr, align 8
  %5 = alloca i64, align 8
  %6 = alloca %"struct.std::pair.21", align 4
  %7 = alloca %"struct.std::pair", align 8
  store ptr %0, ptr %3, align 8, !tbaa !3
  store ptr %1, ptr %4, align 8, !tbaa !47
  %8 = load ptr, ptr %3, align 8
  call void @llvm.lifetime.start.p0(i64 8, ptr %5) #3
  store i64 0, ptr %5, align 8, !tbaa !49
  br label %9

9:                                                ; preds = %39, %2
  %10 = load i64, ptr %5, align 8, !tbaa !49
  %11 = load ptr, ptr %4, align 8, !tbaa !47
  %12 = call noundef i64 @_ZNKSt6vectorIN2cv3MatESaIS1_EE4sizeEv(ptr noundef nonnull align 8 dereferenceable(24) %11) #3
  %13 = icmp ult i64 %10, %12
  br i1 %13, label %15, label %14

14:                                               ; preds = %9
  call void @llvm.lifetime.end.p0(i64 8, ptr %5) #3
  br label %42

15:                                               ; preds = %9
  %16 = getelementptr inbounds nuw %"class.cv::line_descriptor::BinaryDescriptorMatcher", ptr %8, i32 0, i32 1
  %17 = load ptr, ptr %4, align 8, !tbaa !47
  %18 = load i64, ptr %5, align 8, !tbaa !49
  %19 = call noundef nonnull align 8 dereferenceable(96) ptr @_ZNKSt6vectorIN2cv3MatESaIS1_EEixEm(ptr noundef nonnull align 8 dereferenceable(24) %17, i64 noundef %18) #3
  call void @_ZN2cv3Mat9push_backERKS0_(ptr noundef nonnull align 8 dereferenceable(96) %16, ptr noundef nonnull align 8 dereferenceable(96) %19)
  %20 = getelementptr inbounds nuw %"class.cv::line_descriptor::BinaryDescriptorMatcher", ptr %8, i32 0, i32 2
  call void @llvm.lifetime.start.p0(i64 8, ptr %6) #3
  %21 = getelementptr inbounds nuw %"class.cv::line_descriptor::BinaryDescriptorMatcher", ptr %8, i32 0, i32 4
  %22 = getelementptr inbounds nuw %"class.cv::line_descriptor::BinaryDescriptorMatcher", ptr %8, i32 0, i32 5
  call void @_ZNSt4pairIiiEC2IRiS2_TnNSt9enable_ifIXaaclsr5_PCCPE22_MoveConstructiblePairIT_T0_EEclsr5_PCCPE30_ImplicitlyMoveConvertiblePairIS4_S5_EEEbE4typeELb1EEEOS4_OS5_(ptr noundef nonnull align 4 dereferenceable(8) %6, ptr noundef nonnull align 4 dereferenceable(4) %21, ptr noundef nonnull align 4 dereferenceable(4) %22)
  %23 = call { ptr, i8 } @_ZNSt3mapIiiSt4lessIiESaISt4pairIKiiEEE6insertIS2_IiiEEENSt9enable_ifIXsr16is_constructibleIS4_T_EE5valueES2_ISt17_Rb_tree_iteratorIS4_EbEE4typeEOSA_(ptr noundef nonnull align 8 dereferenceable(48) %20, ptr noundef nonnull align 4 dereferenceable(8) %6)
  %24 = getelementptr inbounds nuw { ptr, i8 }, ptr %7, i32 0, i32 0
  %25 = extractvalue { ptr, i8 } %23, 0
  store ptr %25, ptr %24, align 8
  %26 = getelementptr inbounds nuw { ptr, i8 }, ptr %7, i32 0, i32 1
  %27 = extractvalue { ptr, i8 } %23, 1
  store i8 %27, ptr %26, align 8
  call void @llvm.lifetime.end.p0(i64 8, ptr %6) #3
  %28 = load ptr, ptr %4, align 8, !tbaa !47
  %29 = load i64, ptr %5, align 8, !tbaa !49
  %30 = call noundef nonnull align 8 dereferenceable(96) ptr @_ZNKSt6vectorIN2cv3MatESaIS1_EEixEm(ptr noundef nonnull align 8 dereferenceable(24) %28, i64 noundef %29) #3
  %31 = getelementptr inbounds nuw %"class.cv::Mat", ptr %30, i32 0, i32 2
  %32 = load i32, ptr %31, align 8, !tbaa !50
  %33 = getelementptr inbounds nuw %"class.cv::line_descriptor::BinaryDescriptorMatcher", ptr %8, i32 0, i32 4
  %34 = load i32, ptr %33, align 8, !tbaa !10
  %35 = add nsw i32 %34, %32
  store i32 %35, ptr %33, align 8, !tbaa !10
  %36 = getelementptr inbounds nuw %"class.cv::line_descriptor::BinaryDescriptorMatcher", ptr %8, i32 0, i32 5
  %37 = load i32, ptr %36, align 4, !tbaa !38
  %38 = add nsw i32 %37, 1
  store i32 %38, ptr %36, align 4, !tbaa !38
  br label %39

39:                                               ; preds = %15
  %40 = load i64, ptr %5, align 8, !tbaa !49
  %41 = add i64 %40, 1
  store i64 %41, ptr %5, align 8, !tbaa !49
  br label %9, !llvm.loop !51

42:                                               ; preds = %14
  ret void
}