; Function Attrs: mustprogress uwtable
define void @_ZN2cv15line_descriptor23BinaryDescriptorMatcher3addERKSt6vectorINS_3MatESaIS3_EE(ptr noundef nonnull align 8 dereferenceable(180) %0, ptr noundef nonnull readonly align 8 captures(none) dereferenceable(24) %1) local_unnamed_addr #3 align 2 {
  %3 = alloca %"struct.std::pair.21", align 4
  %4 = getelementptr inbounds nuw i8, ptr %1, i64 8
  %5 = load ptr, ptr %4, align 8, !tbaa !57
  %6 = load ptr, ptr %1, align 8, !tbaa !60
  %.not = icmp eq ptr %5, %6
  br i1 %.not, label %._crit_edge, label %.lr.ph

.lr.ph:                                           ; preds = %2
  %7 = getelementptr inbounds nuw i8, ptr %0, i64 8
  %8 = getelementptr inbounds nuw i8, ptr %0, i64 104
  %9 = getelementptr inbounds nuw i8, ptr %0, i64 168
  %10 = getelementptr inbounds nuw i8, ptr %0, i64 172
  %11 = getelementptr inbounds nuw i8, ptr %3, i64 4
  br label %12

._crit_edge:                                      ; preds = %12, %2
  ret void

12:                                               ; preds = %.lr.ph, %12
  %13 = phi ptr [ %6, %.lr.ph ], [ %18, %12 ]
  %.07 = phi i64 [ 0, %.lr.ph ], [ %25, %12 ]
  %14 = getelementptr inbounds nuw %"class.cv::Mat", ptr %13, i64 %.07
  call void @_ZN2cv3Mat9push_backERKS0_(ptr noundef nonnull align 8 dereferenceable(96) %7, ptr noundef nonnull align 8 dereferenceable(96) %14)
  call void @llvm.lifetime.start.p0(i64 8, ptr nonnull %3) #26
  %15 = load i32, ptr %9, align 8, !tbaa !30
  store i32 %15, ptr %3, align 4, !tbaa !61
  %16 = load i32, ptr %10, align 4, !tbaa !30
  store i32 %16, ptr %11, align 4, !tbaa !63
  %17 = call { ptr, i8 } @_ZNSt8_Rb_treeIiSt4pairIKiiESt10_Select1stIS2_ESt4lessIiESaIS2_EE17_M_emplace_uniqueIJS0_IiiEEEES0_ISt17_Rb_tree_iteratorIS2_EbEDpOT_(ptr noundef nonnull align 8 dereferenceable(48) %8, ptr noundef nonnull align 4 dereferenceable(8) %3)
  call void @llvm.lifetime.end.p0(i64 8, ptr nonnull %3) #26
  %18 = load ptr, ptr %1, align 8, !tbaa !60
  %19 = getelementptr inbounds nuw %"class.cv::Mat", ptr %18, i64 %.07, i32 2
  %20 = load i32, ptr %19, align 8, !tbaa !64
  %21 = load i32, ptr %9, align 8, !tbaa !32
  %22 = add nsw i32 %21, %20
  store i32 %22, ptr %9, align 8, !tbaa !32
  %23 = load i32, ptr %10, align 4, !tbaa !50
  %24 = add nsw i32 %23, 1
  store i32 %24, ptr %10, align 4, !tbaa !50
  %25 = add nuw i64 %.07, 1
  %26 = load ptr, ptr %4, align 8, !tbaa !57
  %27 = ptrtoint ptr %26 to i64
  %28 = ptrtoint ptr %18 to i64
  %29 = sub i64 %27, %28
  %30 = sdiv exact i64 %29, 96
  %31 = icmp ult i64 %25, %30
  br i1 %31, label %12, label %._crit_edge, !llvm.loop !65
}